target datalayout = "e-m:e-p270:32:32-p271:32:32-p272:64:64-i64:64-i128:128-f80:128-n8:16:32:64-S128"
target triple = "x86_64-pc-linux-gnu"

; Function Attrs: inlinehint nounwind sspstrong uwtable
define internal i32 @rb_check_arity(i32 noundef %0, i32 noundef %1, i32 noundef %2) #5 {
  %4 = alloca i32, align 4
  %5 = alloca i32, align 4
  %6 = alloca i32, align 4
  store i32 %0, ptr %4, align 4, !tbaa !23
  store i32 %1, ptr %5, align 4, !tbaa !23
  store i32 %2, ptr %6, align 4, !tbaa !23
  %7 = load i32, ptr %4, align 4, !tbaa !23
  %8 = load i32, ptr %5, align 4, !tbaa !23
  %9 = icmp slt i32 %7, %8
  br i1 %9, label %17, label %10

10:                                               ; preds = %3
  %11 = load i32, ptr %6, align 4, !tbaa !23
  %12 = icmp ne i32 %11, -1
  br i1 %12, label %13, label %21

13:                                               ; preds = %10
  %14 = load i32, ptr %4, align 4, !tbaa !23
  %15 = load i32, ptr %6, align 4, !tbaa !23
  %16 = icmp sgt i32 %14, %15
  br i1 %16, label %17, label %21

17:                                               ; preds = %13, %3
  %18 = load i32, ptr %4, align 4, !tbaa !23
  %19 = load i32, ptr %5, align 4, !tbaa !23
  %20 = load i32, ptr %6, align 4, !tbaa !23
  call void @rb_error_arity(i32 noundef %18, i32 noundef %19, i32 noundef %20) #21
  unreachable

21:                                               ; preds = %13, %10
  %22 = load i32, ptr %4, align 4, !tbaa !23
  ret i32 %22
}

; Function Attrs: nounwind sspstrong uwtable
define internal i64 @ossl_bn_is_prime_fasttest(i32 noundef %0, ptr noundef %1, i64 noundef %2) #0 {
  %4 = alloca i32, align 4
  %5 = alloca ptr, align 8
  %6 = alloca i64, align 8
  store i32 %0, ptr %4, align 4, !tbaa !23
  store ptr %1, ptr %5, align 8, !tbaa !17
  store i64 %2, ptr %6, align 8, !tbaa !11
  %7 = load i32, ptr %4, align 4, !tbaa !23
  %8 = call i32 @rb_check_arity(i32 noundef %7, i32 noundef 0, i32 noundef 2)
  %9 = load ptr, ptr %5, align 8, !tbaa !17
  %10 = load i64, ptr %6, align 8, !tbaa !11
  %11 = call i64 @ossl_bn_is_prime(i32 noundef 0, ptr noundef %9, i64 noundef %10)
  ret i64 %11
}