; Function Attrs: nounwind sspstrong uwtable
define internal range(i64 0, 21) i64 @ossl_bn_is_prime_fasttest(i32 noundef %0, ptr readnone captures(none) %1, i64 noundef %2) #0 {
  %or.cond.i = icmp ugt i32 %0, 2
  br i1 %or.cond.i, label %4, label %rb_check_arity.exit

4:                                                ; preds = %3
  tail call void @rb_error_arity(i32 noundef %0, i32 noundef 0, i32 noundef 2) #12
  unreachable

rb_check_arity.exit:                              ; preds = %3
  %5 = tail call i64 @ossl_bn_is_prime(i32 noundef 0, ptr poison, i64 noundef %2)
  ret i64 %5
}